Certificate:
    Data:
        Version: 1 (0x0)
        Serial Number: 4660 (0x1234)
        Signature Algorithm: md5WithRSAEncryption
        Issuer: C=GE, ST=Hessen, L=Hanauu, O=Bra\xC3\x84\xC2\x87a Grimm, OU=bajke za djecu, CN=grimm.edu/emailAddress=bajke@grimm.edu
        Validity
            Not Before: Jan  8 18:56:19 2025 GMT
            Not After : Jan  8 18:56:19 2026 GMT
        Subject: C=HR, ST=\xC3\x85\xC2\xA0uma, L=Ku\xC3\x84\xC2\x87ica u \xC3\x85\xC2\xA1umi, O=opg, OU=sama u ku\xC3\x84\xC2\x87i, CN=kucausumi/emailAddress=baka@bajke.hr
        Subject Public Key Info:
            Public Key Algorithm: rsaEncryption
                Public-Key: (2048 bit)
                Modulus:
                    00:e5:81:a7:49:6e:51:9c:ea:63:34:d8:35:ad:13:
                    05:9c:4c:ae:41:58:85:79:ac:be:db:a6:6d:24:7c:
                    20:51:0d:13:00:90:93:f7:25:4f:2b:f1:e3:d1:d8:
                    25:86:4b:14:28:e3:5a:bb:cb:1c:a1:e6:e0:4a:7f:
                    e8:a7:b6:c5:b6:20:54:bf:61:48:5e:a0:e9:e0:0c:
                    e1:7a:93:32:5b:20:eb:77:2e:b6:23:78:a1:ab:6b:
                    e4:04:c5:51:1d:7c:bf:f1:78:7d:bf:1e:84:4a:f1:
                    85:c4:eb:f4:20:93:7c:43:fb:4f:8e:9d:6b:8a:cd:
                    ed:a5:10:a3:20:26:19:c9:3d:a5:9a:c5:b1:73:e2:
                    ef:ca:00:ae:24:b7:80:60:57:47:eb:cb:98:b1:7c:
                    74:23:b2:41:cd:36:58:90:d0:21:57:52:3f:1c:7d:
                    d0:b6:53:36:17:a3:43:59:b2:ba:01:5b:2f:24:8f:
                    56:f7:f7:fe:a6:aa:1c:8d:82:fc:38:18:9d:bd:57:
                    10:16:45:1e:f1:1c:ba:d2:f3:fe:cb:3b:79:aa:27:
                    db:f4:38:96:64:31:18:a0:49:ed:b9:35:ff:76:e9:
                    0a:ba:bc:c9:4f:12:43:77:7e:65:2e:b0:4d:ab:d0:
                    5f:4a:1e:32:a8:f6:5a:5d:2d:90:7b:96:53:d5:95:
                    9b:01
                Exponent: 65537 (0x10001)
    Signature Algorithm: md5WithRSAEncryption
    Signature Value:
        6a:f7:c1:5c:e4:87:51:23:f3:d1:49:0c:0c:c4:9c:66:5a:7d:
        58:c0:57:39:03:10:05:63:af:49:98:b8:b8:b9:e3:62:46:52:
        22:4f:c4:9b:83:ee:c3:df:40:f5:2e:96:b9:36:4e:49:11:91:
        74:f7:30:bd:b2:aa:b9:24:33:c2:23:11:7b:34:85:b5:e0:0f:
        48:e6:0f:d5:73:44:fd:6d:dd:b5:38:bb:05:8f:d6:f0:8b:9c:
        63:f5:ab:e4:30:a7:55:af:60:e3:94:d3:66:95:77:e3:e0:16:
        fd:d1:af:42:63:98:3b:95:95:2b:61:d6:29:d6:96:57:ea:04:
        f3:27:51:9c:5a:4b:4b:87:a9:a0:d2:d6:47:7f:0d:7a:d9:ec:
        03:da:a1:7e:7f:4e:8e:32:d9:f3:55:51:6c:aa:da:ab:07:26:
        7c:70:62:52:e3:fe:7a:8a:7e:4a:9b:37:89:4a:28:0f:b0:69:
        ee:de:c8:56:bb:1e:71:22:85:6b:00:bb:db:25:88:02:ab:2a:
        c8:9d:47:3b:c5:b8:20:8a:40:23:ab:07:ca:5e:65:9e:de:44:
        be:f1:7c:46:f1:f9:c8:12:24:62:08:71:56:c4:93:7f:46:5e:
        47:a9:85:30:83:b0:f1:e1:4b:15:18:b7:c6:c2:c9:4d:e7:ff:
        38:e1:89:9d
-----BEGIN CERTIFICATE-----
MIIDojCCAooCAhI0MA0GCSqGSIb3DQEBBAUAMIGVMQswCQYDVQQGEwJHRTEPMA0G
A1UECAwGSGVzc2VuMQ8wDQYDVQQHDAZIYW5hdXUxFzAVBgNVBAoMDkJyYcOEwodh
IEdyaW1tMRcwFQYDVQQLDA5iYWprZSB6YSBkamVjdTESMBAGA1UEAwwJZ3JpbW0u
ZWR1MR4wHAYJKoZIhvcNAQkBFg9iYWprZUBncmltbS5lZHUwHhcNMjUwMTA4MTg1
NjE5WhcNMjYwMTA4MTg1NjE5WjCBljELMAkGA1UEBhMCSFIxEDAOBgNVBAgMB8OF
wqB1bWExHDAaBgNVBAcME0t1w4TCh2ljYSB1IMOFwqF1bWkxDDAKBgNVBAoMA29w
ZzEXMBUGA1UECwwOc2FtYSB1IGt1w4TCh2kxEjAQBgNVBAMMCWt1Y2F1c3VtaTEc
MBoGCSqGSIb3DQEJARYNYmFrYUBiYWprZS5ocjCCASIwDQYJKoZIhvcNAQEBBQAD
ggEPADCCAQoCggEBAOWBp0luUZzqYzTYNa0TBZxMrkFYhXmsvtumbSR8IFENEwCQ
k/clTyvx49HYJYZLFCjjWrvLHKHm4Ep/6Ke2xbYgVL9hSF6g6eAM4XqTMlsg63cu
tiN4oatr5ATFUR18v/F4fb8ehErxhcTr9CCTfEP7T46da4rN7aUQoyAmGck9pZrF
sXPi78oAriS3gGBXR+vLmLF8dCOyQc02WJDQIVdSPxx90LZTNhejQ1myugFbLySP
Vvf3/qaqHI2C/DgYnb1XEBZFHvEcutLz/ss7eaon2/Q4lmQxGKBJ7bk1/3bpCrq8
yU8SQ3d+ZS6wTavQX0oeMqj2Wl0tkHuWU9WVmwECAwEAATANBgkqhkiG9w0BAQQF
AAOCAQEAavfBXOSHUSPz0UkMDMScZlp9WMBXOQMQBWOvSZi4uLnjYkZSIk/Em4Pu
w99A9S6WuTZOSRGRdPcwvbKquSQzwiMRezSFteAPSOYP1XNE/W3dtTi7BY/W8Iuc
Y/Wr5DCnVa9g45TTZpV34+AW/dGvQmOYO5WVK2HWKdaWV+oE8ydRnFpLS4epoNLW
R38NetnsA9qhfn9OjjLZ81VRbKraqwcmfHBiUuP+eop+Sps3iUooD7Bp7t7IVrse
cSKFawC72yWIAqsqyJ1HO8W4IIpAI6sHyl5lnt5EvvF8RvH5yBIkYghxVsSTf0Ze
R6mFMIOw8eFLFRi3xsLJTef/OOGJnQ==
-----END CERTIFICATE-----
