Certificate:
    Data:
        Version: 1 (0x0)
        Serial Number: 4663 (0x1237)
        Signature Algorithm: md5WithRSAEncryption
        Issuer: C=GE, ST=Hessen, L=Hanauu, O=Bra\xC3\x84\xC2\x87a Grimm, OU=bajke za djecu, CN=grimm.edu/emailAddress=bajke@grimm.edu
        Validity
            Not Before: Jan  8 19:01:14 2025 GMT
            Not After : Jan  8 19:01:14 2026 GMT
        Subject: C=HR, ST=\xC3\x85\xC2\xA1uma, L=posvuda, O=njamnjam, OU=samotnjak, CN=\xC3\x84\xC2\x90uro/emailAddress=vuk@suma.hr
        Subject Public Key Info:
            Public Key Algorithm: rsaEncryption
                Public-Key: (2048 bit)
                Modulus:
                    00:e9:c0:7d:63:b5:2a:1e:bb:fe:91:40:05:e5:a9:
                    0d:b2:d6:84:29:b4:73:f6:af:d6:e3:63:38:a5:fe:
                    8e:0e:4b:7a:cc:09:9a:0b:88:a2:41:42:c9:ac:ca:
                    aa:ac:82:fc:84:20:ec:7c:9e:a3:97:1c:5a:62:45:
                    44:d7:db:76:80:5f:b1:ae:b0:c9:d2:fd:0f:80:f3:
                    b6:e7:16:ff:93:76:45:02:53:74:72:e3:5a:b5:9a:
                    5a:cd:4d:84:4f:3d:e0:2a:da:4c:64:6b:04:ac:4d:
                    19:f0:20:b8:79:cc:96:6c:98:64:eb:89:d6:77:5f:
                    0e:28:d6:70:bc:d0:e0:64:74:84:12:33:9d:fa:8c:
                    d5:6a:02:6b:e9:bb:38:59:e1:f7:78:c3:ab:10:8a:
                    d8:44:b7:44:af:8e:f3:8b:ef:ba:0f:13:53:87:98:
                    0a:4b:96:ae:58:12:4b:52:8f:a8:30:63:6a:bb:01:
                    06:ba:75:98:8b:b0:80:68:1b:59:1b:cb:58:30:4e:
                    cc:71:5b:ce:e3:87:20:31:8e:7d:e9:03:a9:ea:6a:
                    ed:7a:de:bf:9f:57:1e:ce:74:cc:dd:56:4d:70:32:
                    1c:59:c9:1a:13:a5:97:18:df:be:89:08:52:3c:e1:
                    b0:f4:cd:52:3d:e4:4c:3c:d6:c8:7b:1e:43:0a:e2:
                    b5:8b
                Exponent: 65537 (0x10001)
    Signature Algorithm: md5WithRSAEncryption
    Signature Value:
        89:3f:c5:10:8f:31:fa:85:53:b6:38:92:84:02:a4:46:a1:76:
        7d:29:14:4e:8b:68:d7:22:c8:0b:8a:8d:09:6a:ae:9c:1e:25:
        ba:dd:e3:f2:b5:18:c0:b4:ba:9f:a9:fc:66:41:5e:c3:c1:2b:
        a4:e2:d2:04:64:31:c4:1c:69:29:42:a6:01:97:1a:dc:95:e7:
        33:7c:2d:c9:0d:ee:5d:46:a1:ba:45:4a:89:e5:d0:17:d2:00:
        37:36:80:8d:c3:d8:0f:cc:a2:28:c9:50:e9:48:34:cc:32:84:
        1f:b7:3b:2f:15:98:e9:af:22:1d:00:1c:58:72:4c:6b:41:dc:
        18:18:b0:c9:5b:b5:57:0b:b4:9f:c3:9e:83:6e:81:b0:6b:9a:
        e8:95:40:2f:94:88:bd:a9:5a:17:a2:b7:cd:2b:c4:1a:f2:82:
        c4:b7:b4:cd:0c:19:9c:99:f0:b8:ed:27:70:aa:1a:e3:63:b7:
        b4:78:54:8b:68:d9:70:ab:7d:89:9a:74:b9:bf:3a:14:ca:4c:
        aa:1e:c9:27:fa:92:91:4b:e9:cd:6a:dd:1c:14:10:e7:ac:0e:
        50:1a:39:22:5d:a8:88:1e:7b:0f:2c:39:72:2a:23:33:04:dd:
        bb:c5:eb:e9:9f:39:ec:15:99:d2:7d:d8:80:59:95:1b:5b:5b:
        ef:f0:ce:06
-----BEGIN CERTIFICATE-----
MIIDkjCCAnoCAhI3MA0GCSqGSIb3DQEBBAUAMIGVMQswCQYDVQQGEwJHRTEPMA0G
A1UECAwGSGVzc2VuMQ8wDQYDVQQHDAZIYW5hdXUxFzAVBgNVBAoMDkJyYcOEwodh
IEdyaW1tMRcwFQYDVQQLDA5iYWprZSB6YSBkamVjdTESMBAGA1UEAwwJZ3JpbW0u
ZWR1MR4wHAYJKoZIhvcNAQkBFg9iYWprZUBncmltbS5lZHUwHhcNMjUwMTA4MTkw
MTE0WhcNMjYwMTA4MTkwMTE0WjCBhjELMAkGA1UEBhMCSFIxEDAOBgNVBAgMB8OF
wqF1bWExEDAOBgNVBAcMB3Bvc3Z1ZGExETAPBgNVBAoMCG5qYW1uamFtMRIwEAYD
VQQLDAlzYW1vdG5qYWsxEDAOBgNVBAMMB8OEwpB1cm8xGjAYBgkqhkiG9w0BCQEW
C3Z1a0BzdW1hLmhyMIIBIjANBgkqhkiG9w0BAQEFAAOCAQ8AMIIBCgKCAQEA6cB9
Y7UqHrv+kUAF5akNstaEKbRz9q/W42M4pf6ODkt6zAmaC4iiQULJrMqqrIL8hCDs
fJ6jlxxaYkVE19t2gF+xrrDJ0v0PgPO25xb/k3ZFAlN0cuNatZpazU2ETz3gKtpM
ZGsErE0Z8CC4ecyWbJhk64nWd18OKNZwvNDgZHSEEjOd+ozVagJr6bs4WeH3eMOr
EIrYRLdEr47zi++6DxNTh5gKS5auWBJLUo+oMGNquwEGunWYi7CAaBtZG8tYME7M
cVvO44cgMY596QOp6mrtet6/n1ceznTM3VZNcDIcWckaE6WXGN++iQhSPOGw9M1S
PeRMPNbIex5DCuK1iwIDAQABMA0GCSqGSIb3DQEBBAUAA4IBAQCJP8UQjzH6hVO2
OJKEAqRGoXZ9KRROi2jXIsgLio0Jaq6cHiW63ePytRjAtLqfqfxmQV7DwSuk4tIE
ZDHEHGkpQqYBlxrcleczfC3JDe5dRqG6RUqJ5dAX0gA3NoCNw9gPzKIoyVDpSDTM
MoQftzsvFZjpryIdABxYckxrQdwYGLDJW7VXC7Sfw56DboGwa5rolUAvlIi9qVoX
orfNK8Qa8oLEt7TNDBmcmfC47SdwqhrjY7e0eFSLaNlwq32JmnS5vzoUykyqHskn
+pKRS+nNat0cFBDnrA5QGjkiXaiIHnsPLDlyKiMzBN27xevpnznsFZnSfdiAWZUb
W1vv8M4G
-----END CERTIFICATE-----
